; Function Attrs: nounwind uwtable
define void @If_LibBoxAdd(ptr noundef captures(none) %0, ptr noundef %1) local_unnamed_addr #5 {
  %3 = getelementptr inbounds nuw i8, ptr %1, i64 12
  %4 = load i32, ptr %3, align 4, !tbaa !11
  %5 = getelementptr inbounds nuw i8, ptr %0, i64 8
  %6 = load ptr, ptr %5, align 8, !tbaa !22
  %7 = getelementptr i8, ptr %6, i64 4
  %.val = load i32, ptr %7, align 4, !tbaa !18
  %.not = icmp slt i32 %4, %.val
  br i1 %.not, label %Vec_PtrFillExtra.exit, label %8

8:                                                ; preds = %2
  %9 = shl nsw i32 %4, 1
  %10 = add nsw i32 %9, 10
  %.not.i = icmp sgt i32 %10, %.val
  br i1 %.not.i, label %11, label %Vec_PtrFillExtra.exit

11:                                               ; preds = %8
  %12 = load i32, ptr %6, align 8, !tbaa !20
  %13 = shl nsw i32 %12, 1
  %14 = icmp sgt i32 %10, %13
  %.not.i.i = icmp slt i32 %12, %10
  br i1 %14, label %15, label %27

15:                                               ; preds = %11
  br i1 %.not.i.i, label %16, label %Vec_PtrGrow.exit.i

16:                                               ; preds = %15
  %17 = getelementptr inbounds nuw i8, ptr %6, i64 8
  %18 = load ptr, ptr %17, align 8, !tbaa !21
  %.not9.i.i = icmp eq ptr %18, null
  %19 = sext i32 %10 to i64
  %20 = shl nsw i64 %19, 3
  br i1 %.not9.i.i, label %23, label %21

21:                                               ; preds = %16
  %22 = tail call ptr @realloc(ptr noundef nonnull %18, i64 noundef %20) #22
  br label %25

23:                                               ; preds = %16
  %24 = tail call noalias ptr @malloc(i64 noundef %20) #20
  br label %25

25:                                               ; preds = %23, %21
  %26 = phi ptr [ %22, %21 ], [ %24, %23 ]
  store ptr %26, ptr %17, align 8, !tbaa !21
  br label %Vec_PtrGrow.exit.sink.split.i

27:                                               ; preds = %11
  br i1 %.not.i.i, label %28, label %Vec_PtrGrow.exit.i

28:                                               ; preds = %27
  %29 = getelementptr inbounds nuw i8, ptr %6, i64 8
  %30 = load ptr, ptr %29, align 8, !tbaa !21
  %.not9.i21.i = icmp eq ptr %30, null
  %31 = sext i32 %13 to i64
  %32 = shl nsw i64 %31, 3
  br i1 %.not9.i21.i, label %35, label %33

33:                                               ; preds = %28
  %34 = tail call ptr @realloc(ptr noundef nonnull %30, i64 noundef %32) #22
  br label %37

35:                                               ; preds = %28
  %36 = tail call noalias ptr @malloc(i64 noundef %32) #20
  br label %37

37:                                               ; preds = %35, %33
  %38 = phi ptr [ %34, %33 ], [ %36, %35 ]
  store ptr %38, ptr %29, align 8, !tbaa !21
  br label %Vec_PtrGrow.exit.sink.split.i

Vec_PtrGrow.exit.sink.split.i:                    ; preds = %37, %25
  %.sink.i = phi i32 [ %13, %37 ], [ %10, %25 ]
  store i32 %.sink.i, ptr %6, align 8, !tbaa !20
  %.pre = load i32, ptr %7, align 4, !tbaa !18
  br label %Vec_PtrGrow.exit.i

Vec_PtrGrow.exit.i:                               ; preds = %Vec_PtrGrow.exit.sink.split.i, %27, %15
  %39 = phi i32 [ %.pre, %Vec_PtrGrow.exit.sink.split.i ], [ %.val, %27 ], [ %.val, %15 ]
  %40 = icmp slt i32 %39, %10
  br i1 %40, label %.lr.ph.i, label %._crit_edge.i

.lr.ph.i:                                         ; preds = %Vec_PtrGrow.exit.i
  %41 = getelementptr inbounds nuw i8, ptr %6, i64 8
  %42 = sext i32 %39 to i64
  %wide.trip.count.i = sext i32 %10 to i64
  br label %43

43:                                               ; preds = %43, %.lr.ph.i
  %indvars.iv.i = phi i64 [ %42, %.lr.ph.i ], [ %indvars.iv.next.i, %43 ]
  %44 = load ptr, ptr %41, align 8, !tbaa !21
  %45 = getelementptr inbounds ptr, ptr %44, i64 %indvars.iv.i
  store ptr null, ptr %45, align 8, !tbaa !25
  %indvars.iv.next.i = add nsw i64 %indvars.iv.i, 1
  %exitcond.not.i = icmp eq i64 %indvars.iv.next.i, %wide.trip.count.i
  br i1 %exitcond.not.i, label %._crit_edge.i, label %43, !llvm.loop !29

._crit_edge.i:                                    ; preds = %43, %Vec_PtrGrow.exit.i
  store i32 %10, ptr %7, align 4, !tbaa !18
  %.pre9 = load ptr, ptr %5, align 8, !tbaa !22
  %.pre10 = load i32, ptr %3, align 4, !tbaa !11
  br label %Vec_PtrFillExtra.exit

Vec_PtrFillExtra.exit:                            ; preds = %._crit_edge.i, %8, %2
  %46 = phi i32 [ %.pre10, %._crit_edge.i ], [ %4, %8 ], [ %4, %2 ]
  %47 = phi ptr [ %.pre9, %._crit_edge.i ], [ %6, %8 ], [ %6, %2 ]
  %48 = getelementptr i8, ptr %47, i64 8
  %.val8 = load ptr, ptr %48, align 8, !tbaa !21
  %49 = sext i32 %46 to i64
  %50 = getelementptr inbounds ptr, ptr %.val8, i64 %49
  store ptr %1, ptr %50, align 8, !tbaa !25
  %51 = load i32, ptr %0, align 8, !tbaa !30
  %52 = add nsw i32 %51, 1
  store i32 %52, ptr %0, align 8, !tbaa !30
  ret void
}